target datalayout = "e-m:e-p270:32:32-p271:32:32-p272:64:64-i64:64-i128:128-f80:128-n8:16:32:64-S128"
target triple = "x86_64-pc-linux-gnu"

@hf_ocp1_params_classid_fields = internal global i32 0, align 4
@hf_ocp1_params_classid = internal global i32 0, align 4
@.str.362 = private unnamed_addr constant [3 x i8] c"%d\00", align 1
@.str.363 = private unnamed_addr constant [4 x i8] c"%d.\00", align 1

; Function Attrs: null_pointer_is_valid sspstrong uwtable
define internal i32 @decode_params_OcaClassID(ptr noundef %0, i32 noundef %1, ptr noundef %2) #0 {
  %4 = alloca ptr, align 8
  %5 = alloca i32, align 4
  %6 = alloca ptr, align 8
  %7 = alloca ptr, align 8
  %8 = alloca i32, align 4
  %9 = alloca i16, align 2
  %10 = alloca i32, align 4
  store ptr %0, ptr %4, align 8
  store i32 %1, ptr %5, align 4
  store ptr %2, ptr %6, align 8
  call void @llvm.lifetime.start.p0(i64 8, ptr %7) #9
  call void @llvm.lifetime.start.p0(i64 4, ptr %8) #9
  %11 = load i32, ptr %5, align 4
  store i32 %11, ptr %8, align 4
  %12 = load ptr, ptr %6, align 8
  %13 = load i32, ptr @hf_ocp1_params_classid_fields, align 4
  %14 = load ptr, ptr %4, align 8
  %15 = load i32, ptr %8, align 4
  %16 = call ptr @proto_tree_add_item(ptr noundef %12, i32 noundef %13, ptr noundef %14, i32 noundef %15, i32 noundef 2, i32 noundef 0)
  call void @llvm.lifetime.start.p0(i64 2, ptr %9) #9
  %17 = load ptr, ptr %4, align 8
  %18 = load i32, ptr %8, align 4
  %19 = call zeroext i16 @tvb_get_uint16(ptr noundef %17, i32 noundef %18, i32 noundef 0)
  store i16 %19, ptr %9, align 2
  %20 = load i32, ptr %8, align 4
  %21 = add i32 %20, 2
  store i32 %21, ptr %8, align 4
  %22 = load ptr, ptr %6, align 8
  %23 = load i32, ptr @hf_ocp1_params_classid, align 4
  %24 = load ptr, ptr %4, align 8
  %25 = load i32, ptr %8, align 4
  %26 = load i16, ptr %9, align 2
  %27 = zext i16 %26 to i32
  %28 = mul i32 %27, 2
  %29 = call ptr @proto_tree_add_item(ptr noundef %22, i32 noundef %23, ptr noundef %24, i32 noundef %25, i32 noundef %28, i32 noundef 0)
  store ptr %29, ptr %7, align 8
  call void @llvm.lifetime.start.p0(i64 4, ptr %10) #9
  store i32 0, ptr %10, align 4
  br label %30

30:                                               ; preds = %57, %3
  %31 = load i32, ptr %10, align 4
  %32 = load i16, ptr %9, align 2
  %33 = zext i16 %32 to i32
  %34 = icmp slt i32 %31, %33
  br i1 %34, label %36, label %35

35:                                               ; preds = %30
  call void @llvm.lifetime.end.p0(i64 4, ptr %10) #9
  br label %60

36:                                               ; preds = %30
  %37 = load i32, ptr %10, align 4
  %38 = load i16, ptr %9, align 2
  %39 = zext i16 %38 to i32
  %40 = sub i32 %39, 1
  %41 = icmp eq i32 %37, %40
  br i1 %41, label %42, label %48

42:                                               ; preds = %36
  %43 = load ptr, ptr %7, align 8
  %44 = load ptr, ptr %4, align 8
  %45 = load i32, ptr %8, align 4
  %46 = call zeroext i16 @tvb_get_uint16(ptr noundef %44, i32 noundef %45, i32 noundef 0)
  %47 = zext i16 %46 to i32
  call void (ptr, ptr, ...) @proto_item_append_text(ptr noundef %43, ptr noundef @.str.362, i32 noundef %47)
  br label %54

48:                                               ; preds = %36
  %49 = load ptr, ptr %7, align 8
  %50 = load ptr, ptr %4, align 8
  %51 = load i32, ptr %8, align 4
  %52 = call zeroext i16 @tvb_get_uint16(ptr noundef %50, i32 noundef %51, i32 noundef 0)
  %53 = zext i16 %52 to i32
  call void (ptr, ptr, ...) @proto_item_append_text(ptr noundef %49, ptr noundef @.str.363, i32 noundef %53)
  br label %54

54:                                               ; preds = %48, %42
  %55 = load i32, ptr %8, align 4
  %56 = add i32 %55, 2
  store i32 %56, ptr %8, align 4
  br label %57

57:                                               ; preds = %54
  %58 = load i32, ptr %10, align 4
  %59 = add i32 %58, 1
  store i32 %59, ptr %10, align 4
  br label %30, !llvm.loop !32

60:                                               ; preds = %35
  %61 = load i32, ptr %8, align 4
  %62 = load i32, ptr %5, align 4
  %63 = sub i32 %61, %62
  call void @llvm.lifetime.end.p0(i64 2, ptr %9) #9
  call void @llvm.lifetime.end.p0(i64 4, ptr %8) #9
  call void @llvm.lifetime.end.p0(i64 8, ptr %7) #9
  ret i32 %63
}