; Function Attrs: null_pointer_is_valid sspstrong uwtable
define internal fastcc noundef i32 @decode_params_OcaClassID(ptr noundef %0, i32 noundef %1, ptr noundef %2) unnamed_addr #0 {
  %4 = load i32, ptr @hf_ocp1_params_classid_fields, align 4
  %5 = tail call ptr @proto_tree_add_item(ptr noundef %2, i32 noundef %4, ptr noundef %0, i32 noundef %1, i32 noundef 2, i32 noundef 0)
  %6 = tail call zeroext i16 @tvb_get_uint16(ptr noundef %0, i32 noundef %1, i32 noundef 0)
  %7 = add i32 %1, 2
  %8 = load i32, ptr @hf_ocp1_params_classid, align 4
  %9 = zext i16 %6 to i32
  %10 = shl nuw nsw i32 %9, 1
  %11 = tail call ptr @proto_tree_add_item(ptr noundef %2, i32 noundef %8, ptr noundef %0, i32 noundef %7, i32 noundef %10, i32 noundef 0)
  %.not = icmp eq i16 %6, 0
  br i1 %.not, label %._crit_edge, label %.lr.ph

.lr.ph:                                           ; preds = %3
  %12 = add nsw i32 %9, -1
  br label %14

._crit_edge:                                      ; preds = %14, %3
  %.024.lcssa = phi i32 [ %7, %3 ], [ %18, %14 ]
  %13 = sub i32 %.024.lcssa, %1
  ret i32 %13

14:                                               ; preds = %.lr.ph, %14
  %.027 = phi i32 [ 0, %.lr.ph ], [ %19, %14 ]
  %.02426 = phi i32 [ %7, %.lr.ph ], [ %18, %14 ]
  %15 = icmp eq i32 %.027, %12
  %16 = tail call zeroext i16 @tvb_get_uint16(ptr noundef %0, i32 noundef %.02426, i32 noundef 0)
  %17 = zext i16 %16 to i32
  %.str.362..str.363 = select i1 %15, ptr @.str.362, ptr @.str.363
  tail call void (ptr, ptr, ...) @proto_item_append_text(ptr noundef %11, ptr noundef nonnull %.str.362..str.363, i32 noundef %17)
  %18 = add i32 %.02426, 2
  %19 = add nuw nsw i32 %.027, 1
  %exitcond.not = icmp eq i32 %19, %9
  br i1 %exitcond.not, label %._crit_edge, label %14, !llvm.loop !30
}